; Function Attrs: mustprogress nofree norecurse nosync nounwind sspstrong willreturn memory(read, inaccessiblemem: none) uwtable
define dso_local range(i32 0, 2) i32 @onig_noname_group_capture_is_active(ptr noundef readonly captures(none) %0) local_unnamed_addr #10 {
  %2 = getelementptr inbounds nuw i8, ptr %0, i64 56
  %3 = load i32, ptr %2, align 8, !tbaa !56
  %4 = and i32 %3, 128
  %.not = icmp eq i32 %4, 0
  br i1 %.not, label %5, label %19

5:                                                ; preds = %1
  %6 = getelementptr inbounds nuw i8, ptr %0, i64 88
  %7 = load ptr, ptr %6, align 8, !tbaa !21
  %.not.i = icmp eq ptr %7, null
  br i1 %.not.i, label %onig_number_of_names.exit.thread, label %onig_number_of_names.exit

onig_number_of_names.exit:                        ; preds = %5
  %8 = getelementptr inbounds nuw i8, ptr %7, i64 16
  %9 = load i64, ptr %8, align 8, !tbaa !27
  %10 = trunc i64 %9 to i32
  %11 = icmp sgt i32 %10, 0
  br i1 %11, label %12, label %onig_number_of_names.exit.thread

12:                                               ; preds = %onig_number_of_names.exit
  %13 = getelementptr inbounds nuw i8, ptr %0, i64 80
  %14 = load ptr, ptr %13, align 8, !tbaa !57
  %15 = getelementptr inbounds nuw i8, ptr %14, i64 8
  %16 = load i32, ptr %15, align 4, !tbaa !58
  %17 = and i32 %16, 128
  %.not4 = icmp ne i32 %17, 0
  %18 = and i32 %3, 256
  %.not5 = icmp eq i32 %18, 0
  %or.cond = and i1 %.not5, %.not4
  br i1 %or.cond, label %19, label %onig_number_of_names.exit.thread

onig_number_of_names.exit.thread:                 ; preds = %5, %12, %onig_number_of_names.exit
  br label %19

19:                                               ; preds = %12, %1, %onig_number_of_names.exit.thread
  %.0 = phi i32 [ 1, %onig_number_of_names.exit.thread ], [ 0, %1 ], [ 0, %12 ]
  ret i32 %.0
}